00000000 c7f6                LGOTO    0x9; __nyc_ny8_startup=0x9
_Power_Off:
00000001 e3d0                BCR      0x2f, 0x0
00000002 fd52                CLRR     0x2d
00000003 fd51                CLRR     0x2e
00000004 e2cf                BCR      0x30, 0x2
00000005 fd4c                CLRR     0x33
00000006 e2f9                BCR      PORTB, PB2
00000007 ffef                RET
00000008 c5f0                LGOTO    0x20f; _isr=0x20f
__nyc_ny8_startup:
00000009 deef                MOVIA    0x10
0000000a ff7b                MOVAR    FSR
crt0.o:.l0:
0000000b fd7f                CLRR     INDF
0000000c fa7b                INCR     FSR, ToReg
0000000d f4fb                BTRSS    FSR, BK0
0000000e c7f4                LGOTO    0xb; crt0.o:.l0=0xb
0000000f fd7b                CLRR     FSR
00000010 d54e                LCALL    0x2b1; ___cinit_load__=0x2b1
00000011 c63e                LGOTO    0x1c1; _main=0x1c1
_M1_Work:
crt0.o:crt0_end:
00000012 f64f                BTRSS    0x30, 0x3
00000013 c6d5                LGOTO    0x12a; Motor.o:_02088_DS_=0x12a
00000014 fecc                MOVR     0x33, ToAcc
00000015 edcb                XORAR    0x34, ToAcc
00000016 f2fc                BTRSC    STATUS, Z
00000017 c7dc                LGOTO    0x23; Motor.o:_02042_DS_=0x23
00000018 fecb                MOVR     0x34, ToAcc
00000019 ff4c                MOVAR    0x33
0000001a fd4e                CLRR     0x31
0000001b fd56                CLRR     0x29
0000001c fd55                CLRR     0x2a
0000001d fd4d                CLRR     0x32
0000001e fd54                CLRR     0x2b
0000001f fd53                CLRR     0x2c
00000020 defe                MOVIA    0x1
00000021 ff5e                MOVAR    0x21
00000022 fd5d                CLRR     0x22
Motor.o:_02042_DS_:
00000023 e24f                BCR      0x30, 0x3
00000024 e2cf                BCR      0x30, 0x2
00000025 def4                MOVIA    0xb
00000026 fbcc                SUBAR    0x33, ToAcc
00000027 f3fc                BTRSC    STATUS, C
00000028 c7c4                LGOTO    0x3b; Motor.o:_02043_DS_=0x3b
00000029 deff                MOVIA    0x0
0000002a ff75                MOVAR    PCHBUF
0000002b fecc                MOVR     0x33, ToAcc
0000002c dacf                ADDIA    0x30
0000002d f3fc                BTRSC    STATUS, C
0000002e fa75                INCR     PCHBUF, ToReg
0000002f ff7d                MOVAR    PCL
Motor.o:_02162_DS_:
00000030 c7c4                LGOTO    0x3b; Motor.o:_02043_DS_=0x3b
00000031 c7c1                LGOTO    0x3e; Motor.o:_02044_DS_=0x3e
00000032 c7ba                LGOTO    0x45; Motor.o:_02045_DS_=0x45
00000033 c7b3                LGOTO    0x4c; Motor.o:_02046_DS_=0x4c
00000034 c7ac                LGOTO    0x53; Motor.o:_02047_DS_=0x53
00000035 c7a3                LGOTO    0x5c; Motor.o:_02048_DS_=0x5c
00000036 c784                LGOTO    0x7b; Motor.o:_02054_DS_=0x7b
00000037 c752                LGOTO    0xad; Motor.o:_02063_DS_=0xad
00000038 c720                LGOTO    0xdf; Motor.o:_02072_DS_=0xdf
00000039 c717                LGOTO    0xe8; Motor.o:_02073_DS_=0xe8
0000003a c70e                LGOTO    0xf1; Motor.o:_02074_DS_=0xf1
Motor.o:_02043_DS_:
0000003b defe                MOVIA    0x1
0000003c ff4c                MOVAR    0x33
0000003d c6dd                LGOTO    0x122; Motor.o:_02083_DS_=0x122
Motor.o:_02044_DS_:
0000003e dea1                MOVIA    0x5e
0000003f ff5c                MOVAR    0x23
00000040 fd5b                CLRR     0x24
00000041 ded5                MOVIA    0x2a
00000042 ff58                MOVAR    0x27
00000043 fd57                CLRR     0x28
00000044 c6dd                LGOTO    0x122; Motor.o:_02083_DS_=0x122
Motor.o:_02045_DS_:
00000045 dea1                MOVIA    0x5e
00000046 ff5c                MOVAR    0x23
00000047 fd5b                CLRR     0x24
00000048 debf                MOVIA    0x40
00000049 ff58                MOVAR    0x27
0000004a fd57                CLRR     0x28
0000004b c6dd                LGOTO    0x122; Motor.o:_02083_DS_=0x122
Motor.o:_02046_DS_:
0000004c de9b                MOVIA    0x64
0000004d ff5c                MOVAR    0x23
0000004e fd5b                CLRR     0x24
0000004f de9b                MOVIA    0x64
00000050 ff58                MOVAR    0x27
00000051 fd57                CLRR     0x28
00000052 c6dd                LGOTO    0x122; Motor.o:_02083_DS_=0x122
Motor.o:_02047_DS_:
00000053 de69                MOVIA    0x96
00000054 ff5c                MOVAR    0x23
00000055 def2                MOVIA    0xd
00000056 ff5b                MOVAR    0x24
00000057 defe                MOVIA    0x1
00000058 ff58                MOVAR    0x27
00000059 def4                MOVIA    0xb
0000005a ff57                MOVAR    0x28
0000005b c6dd                LGOTO    0x122; Motor.o:_02083_DS_=0x122
Motor.o:_02048_DS_:
0000005c fece                MOVR     0x31, ToAcc
0000005d f6fc                BTRSS    STATUS, Z
0000005e c793                LGOTO    0x6c; Motor.o:_02052_DS_=0x6c
0000005f de49                MOVIA    0xb6
00000060 ff5c                MOVAR    0x23
00000061 def8                MOVIA    0x7
00000062 ff5b                MOVAR    0x24
00000063 defd                MOVIA    0x2
00000064 ff58                MOVAR    0x27
00000065 defb                MOVIA    0x4
00000066 ff57                MOVAR    0x28
00000067 deef                MOVIA    0x10
00000068 ff6b                MOVAR    0x14
00000069 deff                MOVIA    0x0
0000006a d572                LCALL    0x28d; _Motor_PWM_Loop2=0x28d
0000006b c6dd                LGOTO    0x122; Motor.o:_02083_DS_=0x122
Motor.o:_02052_DS_:
0000006c fece                MOVR     0x31, ToAcc
0000006d dbfe                XORIA    0x1
0000006e f6fc                BTRSS    STATUS, Z
0000006f c6dd                LGOTO    0x122; Motor.o:_02083_DS_=0x122
00000070 dea1                MOVIA    0x5e
00000071 ff5c                MOVAR    0x23
00000072 fd5b                CLRR     0x24
00000073 decc                MOVIA    0x33
00000074 ff58                MOVAR    0x27
00000075 fd57                CLRR     0x28
00000076 debf                MOVIA    0x40
00000077 ff6b                MOVAR    0x14
00000078 def9                MOVIA    0x6
00000079 d584                LCALL    0x27b; _Motor_PWM_Loop3=0x27b
0000007a c6dd                LGOTO    0x122; Motor.o:_02083_DS_=0x122
Motor.o:_02054_DS_:
0000007b fece                MOVR     0x31, ToAcc
0000007c f6fc                BTRSS    STATUS, Z
0000007d c774                LGOTO    0x8b; Motor.o:_02061_DS_=0x8b
0000007e dec0                MOVIA    0x3f
0000007f ff5c                MOVAR    0x23
00000080 def9                MOVIA    0x6
00000081 ff5b                MOVAR    0x24
00000082 deb0                MOVIA    0x4f
00000083 ff58                MOVAR    0x27
00000084 defc                MOVIA    0x3
00000085 ff57                MOVAR    0x28
00000086 deeb                MOVIA    0x14
00000087 ff6b                MOVAR    0x14
00000088 deff                MOVIA    0x0
00000089 d560                LCALL    0x29f; _Motor_PWM_Loop1=0x29f
0000008a c6dd                LGOTO    0x122; Motor.o:_02083_DS_=0x122
Motor.o:_02061_DS_:
0000008b fece                MOVR     0x31, ToAcc
0000008c dbfe                XORIA    0x1
0000008d f6fc                BTRSS    STATUS, Z
0000008e c763                LGOTO    0x9c; Motor.o:_02058_DS_=0x9c
0000008f de8b                MOVIA    0x74
00000090 ff5c                MOVAR    0x23
00000091 deda                MOVIA    0x25
00000092 ff5b                MOVAR    0x24
00000093 de45                MOVIA    0xba
00000094 ff58                MOVAR    0x27
00000095 deed                MOVIA    0x12
00000096 ff57                MOVAR    0x28
00000097 def9                MOVIA    0x6
00000098 ff6b                MOVAR    0x14
00000099 deff                MOVIA    0x0
0000009a d572                LCALL    0x28d; _Motor_PWM_Loop2=0x28d
0000009b c6dd                LGOTO    0x122; Motor.o:_02083_DS_=0x122
Motor.o:_02058_DS_:
0000009c fece                MOVR     0x31, ToAcc
0000009d dbfd                XORIA    0x2
0000009e f6fc                BTRSS    STATUS, Z
0000009f c6dd                LGOTO    0x122; Motor.o:_02083_DS_=0x122
000000a0 de3f                MOVIA    0xc0
000000a1 ff5c                MOVAR    0x23
000000a2 dee2                MOVIA    0x1d
000000a3 ff5b                MOVAR    0x24
000000a4 defd                MOVIA    0x2
000000a5 ff58                MOVAR    0x27
000000a6 def4                MOVIA    0xb
000000a7 ff57                MOVAR    0x28
000000a8 defa                MOVIA    0x5
000000a9 ff6b                MOVAR    0x14
000000aa deff                MOVIA    0x0
000000ab d584                LCALL    0x27b; _Motor_PWM_Loop3=0x27b
000000ac c6dd                LGOTO    0x122; Motor.o:_02083_DS_=0x122
Motor.o:_02063_DS_:
000000ad fece                MOVR     0x31, ToAcc
000000ae f6fc                BTRSS    STATUS, Z
000000af c742                LGOTO    0xbd; Motor.o:_02070_DS_=0xbd
000000b0 de97                MOVIA    0x68
000000b1 ff5c                MOVAR    0x23
000000b2 defb                MOVIA    0x4
000000b3 ff5b                MOVAR    0x24
000000b4 decb                MOVIA    0x34
000000b5 ff58                MOVAR    0x27
000000b6 defd                MOVIA    0x2
000000b7 ff57                MOVAR    0x28
000000b8 defa                MOVIA    0x5
000000b9 ff6b                MOVAR    0x14
000000ba deff                MOVIA    0x0
000000bb d560                LCALL    0x29f; _Motor_PWM_Loop1=0x29f
000000bc c6dd                LGOTO    0x122; Motor.o:_02083_DS_=0x122
Motor.o:_02070_DS_:
000000bd fece                MOVR     0x31, ToAcc
000000be dbfe                XORIA    0x1
000000bf f6fc                BTRSS    STATUS, Z
000000c0 c731                LGOTO    0xce; Motor.o:_02067_DS_=0xce
000000c1 de81                MOVIA    0x7e
000000c2 ff5c                MOVAR    0x23
000000c3 def3                MOVIA    0xc
000000c4 ff5b                MOVAR    0x24
000000c5 dea0                MOVIA    0x5f
000000c6 ff58                MOVAR    0x27
000000c7 defb                MOVIA    0x4
000000c8 ff57                MOVAR    0x28
000000c9 def5                MOVIA    0xa
000000ca ff6b                MOVAR    0x14
000000cb deff                MOVIA    0x0
000000cc d572                LCALL    0x28d; _Motor_PWM_Loop2=0x28d
000000cd c6dd                LGOTO    0x122; Motor.o:_02083_DS_=0x122
Motor.o:_02067_DS_:
000000ce fece                MOVR     0x31, ToAcc
000000cf dbfd                XORIA    0x2
000000d0 f6fc                BTRSS    STATUS, Z
000000d1 c6dd                LGOTO    0x122; Motor.o:_02083_DS_=0x122
000000d2 de6a                MOVIA    0x95
000000d3 ff5c                MOVAR    0x23
000000d4 dee7                MOVIA    0x18
000000d5 ff5b                MOVAR    0x24
000000d6 ded7                MOVIA    0x28
000000d7 ff58                MOVAR    0x27
000000d8 deeb                MOVIA    0x14
000000d9 ff57                MOVAR    0x28
000000da def5                MOVIA    0xa
000000db ff6b                MOVAR    0x14
000000dc deff                MOVIA    0x0
000000dd d584                LCALL    0x27b; _Motor_PWM_Loop3=0x27b
000000de c6dd                LGOTO    0x122; Motor.o:_02083_DS_=0x122
Motor.o:_02072_DS_:
000000df de4f                MOVIA    0xb0
000000e0 ff5c                MOVAR    0x23
000000e1 dedf                MOVIA    0x20
000000e2 ff5b                MOVAR    0x24
000000e3 de18                MOVIA    0xe7
000000e4 ff58                MOVAR    0x27
000000e5 deea                MOVIA    0x15
000000e6 ff57                MOVAR    0x28
000000e7 c6dd                LGOTO    0x122; Motor.o:_02083_DS_=0x122
Motor.o:_02073_DS_:
000000e8 de9e                MOVIA    0x61
000000e9 ff5c                MOVAR    0x23
000000ea def4                MOVIA    0xb
000000eb ff5b                MOVAR    0x24
000000ec de89                MOVIA    0x76
000000ed ff58                MOVAR    0x27
000000ee defa                MOVIA    0x5
000000ef ff57                MOVAR    0x28
000000f0 c6dd                LGOTO    0x122; Motor.o:_02083_DS_=0x122
Motor.o:_02074_DS_:
000000f1 fece                MOVR     0x31, ToAcc
000000f2 f6fc                BTRSS    STATUS, Z
000000f3 c6fe                LGOTO    0x101; Motor.o:_02081_DS_=0x101
000000f4 de4a                MOVIA    0xb5
000000f5 ff5c                MOVAR    0x23
000000f6 def8                MOVIA    0x7
000000f7 ff5b                MOVAR    0x24
000000f8 de50                MOVIA    0xaf
000000f9 ff58                MOVAR    0x27
000000fa defc                MOVIA    0x3
000000fb ff57                MOVAR    0x28
000000fc def5                MOVIA    0xa
000000fd ff6b                MOVAR    0x14
000000fe deff                MOVIA    0x0
000000ff d560                LCALL    0x29f; _Motor_PWM_Loop1=0x29f
00000100 c6dd                LGOTO    0x122; Motor.o:_02083_DS_=0x122
Motor.o:_02081_DS_:
00000101 fece                MOVR     0x31, ToAcc
00000102 dbfe                XORIA    0x1
00000103 f6fc                BTRSS    STATUS, Z
00000104 c6ed                LGOTO    0x112; Motor.o:_02078_DS_=0x112
00000105 dea0                MOVIA    0x5f
00000106 ff5c                MOVAR    0x23
00000107 dedb                MOVIA    0x24
00000108 ff5b                MOVAR    0x24
00000109 decf                MOVIA    0x30
0000010a ff58                MOVAR    0x27
0000010b deed                MOVIA    0x12
0000010c ff57                MOVAR    0x28
0000010d defa                MOVIA    0x5
0000010e ff6b                MOVAR    0x14
0000010f deff                MOVIA    0x0
00000110 d572                LCALL    0x28d; _Motor_PWM_Loop2=0x28d
00000111 c6dd                LGOTO    0x122; Motor.o:_02083_DS_=0x122
Motor.o:_02078_DS_:
00000112 fece                MOVR     0x31, ToAcc
00000113 dbfd                XORIA    0x2
00000114 f6fc                BTRSS    STATUS, Z
00000115 c6dd                LGOTO    0x122; Motor.o:_02083_DS_=0x122
00000116 def7                MOVIA    0x8
00000117 ff5c                MOVAR    0x23
00000118 dee9                MOVIA    0x16
00000119 ff5b                MOVAR    0x24
0000011a defb                MOVIA    0x4
0000011b ff58                MOVAR    0x27
0000011c def4                MOVIA    0xb
0000011d ff57                MOVAR    0x28
0000011e def5                MOVIA    0xa
0000011f ff6b                MOVAR    0x14
00000120 deff                MOVIA    0x0
00000121 d584                LCALL    0x27b; _Motor_PWM_Loop3=0x27b
Motor.o:_02083_DS_:
00000122 defe                MOVIA    0x1
00000123 fbcc                SUBAR    0x33, ToAcc
00000124 f7fc                BTRSS    STATUS, C
00000125 c6d5                LGOTO    0x12a; Motor.o:_02088_DS_=0x12a
00000126 def4                MOVIA    0xb
00000127 fbcc                SUBAR    0x33, ToAcc
00000128 f7fc                BTRSS    STATUS, C
00000129 e6cf                BSR      0x30, 0x2
Motor.o:_02088_DS_:
0000012a f7d0                BTRSS    0x2f, 0x0
0000012b c6d1                LGOTO    0x12e; Motor.o:_02091_DS_=0x12e
0000012c fd52                CLRR     0x2d
0000012d fd51                CLRR     0x2e
Motor.o:_02091_DS_:
0000012e ffef                RET
_Key_Scan:
0000012f f679                BTRSS    PORTB, PB3
00000130 c6c9                LGOTO    0x136; Key.o:_02012_DS_=0x136
00000131 f6d0                BTRSS    0x2f, 0x2
00000132 c6c3                LGOTO    0x13c; Key.o:_02013_DS_=0x13c
00000133 e2d0                BCR      0x2f, 0x2
00000134 fd4a                CLRR     0x35
00000135 c6c3                LGOTO    0x13c; Key.o:_02013_DS_=0x13c
Key.o:_02012_DS_:
00000136 f2d0                BTRSC    0x2f, 0x2
00000137 c6c3                LGOTO    0x13c; Key.o:_02013_DS_=0x13c
00000138 f2d0                BTRSC    0x2f, 0x2
00000139 c6c3                LGOTO    0x13c; Key.o:_02013_DS_=0x13c
0000013a e6d0                BSR      0x2f, 0x2
0000013b fd4a                CLRR     0x35
Key.o:_02013_DS_:
0000013c ded7                MOVIA    0x28
0000013d fbca                SUBAR    0x35, ToAcc
0000013e f7fc                BTRSS    STATUS, C
0000013f c6b3                LGOTO    0x14c; Key.o:_02022_DS_=0x14c
00000140 f6d0                BTRSS    0x2f, 0x2
00000141 c6bb                LGOTO    0x144; Key.o:_02015_DS_=0x144
00000142 e650                BSR      0x2f, 0x3
00000143 c6ba                LGOTO    0x145; Key.o:_02016_DS_=0x145
Key.o:_02015_DS_:
00000144 e250                BCR      0x2f, 0x3
Key.o:_02016_DS_:
00000145 f650                BTRSS    0x2f, 0x3
00000146 c6b4                LGOTO    0x14b; Key.o:_02020_DS_=0x14b
00000147 dedb                MOVIA    0x24
00000148 fbc9                SUBAR    0x36, ToAcc
00000149 f7fc                BTRSS    STATUS, C
0000014a fa49                INCR     0x36, ToReg
Key.o:_02020_DS_:
0000014b fd4a                CLRR     0x35
Key.o:_02022_DS_:
0000014c f250                BTRSC    0x2f, 0x3
0000014d c69e                LGOTO    0x161; Key.o:_02031_DS_=0x161
0000014e fec9                MOVR     0x36, ToAcc
0000014f f2fc                BTRSC    STATUS, Z
00000150 c69e                LGOTO    0x161; Key.o:_02031_DS_=0x161
00000151 dedc                MOVIA    0x23
00000152 fbc9                SUBAR    0x36, ToAcc
00000153 f3fc                BTRSC    STATUS, C
00000154 c69f                LGOTO    0x160; Key.o:_02026_DS_=0x160
00000155 f7d0                BTRSS    0x2f, 0x0
00000156 c69f                LGOTO    0x160; Key.o:_02026_DS_=0x160
00000157 e5d0                BSR      0x2f, 0x4
00000158 e64f                BSR      0x30, 0x3
00000159 fa4b                INCR     0x34, ToReg
0000015a def4                MOVIA    0xb
0000015b fbcb                SUBAR    0x34, ToAcc
0000015c f7fc                BTRSS    STATUS, C
0000015d c69f                LGOTO    0x160; Key.o:_02026_DS_=0x160
0000015e defe                MOVIA    0x1
0000015f ff4b                MOVAR    0x34
Key.o:_02026_DS_:
00000160 fd49                CLRR     0x36
Key.o:_02031_DS_:
00000161 fec9                MOVR     0x36, ToAcc
00000162 dbdc                XORIA    0x23
00000163 f6fc                BTRSS    STATUS, Z
00000164 c690                LGOTO    0x16f; Key.o:_02037_DS_=0x16f
00000165 fa49                INCR     0x36, ToReg
00000166 f7d0                BTRSS    0x2f, 0x0
00000167 c695                LGOTO    0x16a; Key.o:_02033_DS_=0x16a
00000168 d7fe                LCALL    0x1; _Power_Off=0x1
00000169 c690                LGOTO    0x16f; Key.o:_02037_DS_=0x16f
Key.o:_02033_DS_:
0000016a e7d0                BSR      0x2f, 0x0
0000016b e64f                BSR      0x30, 0x3
0000016c defe                MOVIA    0x1
0000016d ff4b                MOVAR    0x34
0000016e e5d0                BSR      0x2f, 0x4
Key.o:_02037_DS_:
0000016f ffef                RET
_M1_Work_Process:
00000170 f6cf                BTRSS    0x30, 0x2
00000171 c667                LGOTO    0x198; Motor.o:_02015_DS_=0x198
00000172 fa54                INCR     0x2b, ToReg
00000173 f2fc                BTRSC    STATUS, Z
00000174 fa53                INCR     0x2c, ToReg
00000175 fede                MOVR     0x21, ToAcc
00000176 edd4                XORAR    0x2b, ToAcc
00000177 f6fc                BTRSS    STATUS, Z
00000178 c66f                LGOTO    0x190; Motor.o:_02011_DS_=0x190
00000179 fedd                MOVR     0x22, ToAcc
0000017a edd3                XORAR    0x2c, ToAcc
0000017b f6fc                BTRSS    STATUS, Z
0000017c c66f                LGOTO    0x190; Motor.o:_02011_DS_=0x190
0000017d fd54                CLRR     0x2b
0000017e fd53                CLRR     0x2c
0000017f fed9                MOVR     0x26, ToAcc
00000180 eeda                IORAR    0x25, ToAcc
00000181 f2fc                BTRSC    STATUS, Z
00000182 c67a                LGOTO    0x185; Motor.o:_02006_DS_=0x185
00000183 e6f9                BSR      PORTB, PB2
00000184 c679                LGOTO    0x186; Motor.o:_02007_DS_=0x186
Motor.o:_02006_DS_:
00000185 e2f9                BCR      PORTB, PB2
Motor.o:_02007_DS_:
00000186 fedc                MOVR     0x23, ToAcc
00000187 ff5e                MOVAR    0x21
00000188 fedb                MOVR     0x24, ToAcc
00000189 ff5d                MOVAR    0x22
0000018a fed8                MOVR     0x27, ToAcc
0000018b ff5a                MOVAR    0x25
0000018c fed7                MOVR     0x28, ToAcc
0000018d ff59                MOVAR    0x26
0000018e e64f                BSR      0x30, 0x3
0000018f c667                LGOTO    0x198; Motor.o:_02015_DS_=0x198
Motor.o:_02011_DS_:
00000190 feda                MOVR     0x25, ToAcc
00000191 edd4                XORAR    0x2b, ToAcc
00000192 f6fc                BTRSS    STATUS, Z
00000193 c667                LGOTO    0x198; Motor.o:_02015_DS_=0x198
00000194 fed9                MOVR     0x26, ToAcc
00000195 edd3                XORAR    0x2c, ToAcc
00000196 f2fc                BTRSC    STATUS, Z
00000197 e2f9                BCR      PORTB, PB2
Motor.o:_02015_DS_:
00000198 ffef                RET
_Clock:
00000199 def5                MOVIA    0xa
0000019a fbe9                SUBAR    0x16, ToAcc
0000019b f7fc                BTRSS    STATUS, C
0000019c c63f                LGOTO    0x1c0; Delay.o:_02037_DS_=0x1c0
0000019d fd69                CLRR     0x16
0000019e fa68                INCR     0x17, ToReg
0000019f fa46                INCR     0x39, ToReg
000001a0 fa4a                INCR     0x35, ToReg
000001a1 def5                MOVIA    0xa
000001a2 fbe8                SUBAR    0x17, ToAcc
000001a3 f7fc                BTRSS    STATUS, C
000001a4 c63f                LGOTO    0x1c0; Delay.o:_02037_DS_=0x1c0
000001a5 fa52                INCR     0x2d, ToReg
000001a6 f2fc                BTRSC    STATUS, Z
000001a7 fa51                INCR     0x2e, ToReg
000001a8 f1d0                BTRSC    0x2f, 0x4
000001a9 fa6a                INCR     0x15, ToReg
000001aa fd68                CLRR     0x17
000001ab fa67                INCR     0x18, ToReg
000001ac def5                MOVIA    0xa
000001ad fbe7                SUBAR    0x18, ToAcc
000001ae f7fc                BTRSS    STATUS, C
000001af c63f                LGOTO    0x1c0; Delay.o:_02037_DS_=0x1c0
000001b0 fa47                INCR     0x38, ToReg
000001b1 fd67                CLRR     0x18
000001b2 fa66                INCR     0x19, ToReg
000001b3 def5                MOVIA    0xa
000001b4 fbe6                SUBAR    0x19, ToAcc
000001b5 f7fc                BTRSS    STATUS, C
000001b6 c63f                LGOTO    0x1c0; Delay.o:_02037_DS_=0x1c0
000001b7 fd66                CLRR     0x19
000001b8 fa65                INCR     0x1a, ToReg
000001b9 fa48                INCR     0x37, ToReg
000001ba dec3                MOVIA    0x3c
000001bb fbe5                SUBAR    0x1a, ToAcc
000001bc f7fc                BTRSS    STATUS, C
000001bd c63f                LGOTO    0x1c0; Delay.o:_02037_DS_=0x1c0
000001be fd65                CLRR     0x1a
000001bf fa64                INCR     0x1b, ToReg
Delay.o:_02037_DS_:
000001c0 ffef                RET
_main:
000001c1 d598                LCALL    0x267; _Init=0x267
main.o:_02021_DS_:
000001c2 fffd                CLRWDT
000001c3 d5ae                LCALL    0x251; _Charge_Dectect=0x251
000001c4 f54f                BTRSS    0x30, 0x5
000001c5 c637                LGOTO    0x1c8; main.o:_02018_DS_=0x1c8
000001c6 d5cc                LCALL    0x233; _Charge_Process=0x233
000001c7 c619                LGOTO    0x1e6; main.o:_02019_DS_=0x1e6
main.o:_02018_DS_:
000001c8 d6d0                LCALL    0x12f; _Key_Scan=0x12f
000001c9 d7ed                LCALL    0x12; _M1_Work=0x12
000001ca fed1                MOVR     0x2e, ToAcc
000001cb da7f                ADDIA    0x80
000001cc da7f                ADDIA    0x80
000001cd f6fc                BTRSS    STATUS, Z
000001ce c62e                LGOTO    0x1d1; main.o:_02045_DS_=0x1d1
000001cf de23                MOVIA    0xdc
000001d0 fbd2                SUBAR    0x2d, ToAcc
main.o:_02045_DS_:
000001d1 f7fc                BTRSS    STATUS, C
000001d2 c619                LGOTO    0x1e6; main.o:_02019_DS_=0x1e6
000001d3 fd52                CLRR     0x2d
000001d4 fd51                CLRR     0x2e
000001d5 fd77                CLRR     PCON
000001d6 ffec                DISI
000001d7 de02                MOVIA    0xfd
000001d8 ff70                MOVAR    INTF
000001d9 defd                MOVIA    0x2
000001da ff71                MOVAR    INTE
000001db f679                BTRSS    PORTB, PB3
000001dc c61e                LGOTO    0x1e1; main.o:_02013_DS_=0x1e1
000001dd f3f9                BTRSC    PORTB, PB0
000001de c61e                LGOTO    0x1e1; main.o:_02013_DS_=0x1e1
000001df e779                BSR      PORTB, PB1
000001e0 fffe                SLEEP
main.o:_02013_DS_:
000001e1 ffff                NOP
000001e2 ffff                NOP
000001e3 defe                MOVIA    0x1
000001e4 ff71                MOVAR    INTE
000001e5 fffb                ENI
main.o:_02019_DS_:
000001e6 d616                LCALL    0x1e9; _LED=0x1e9
000001e7 c63d                LGOTO    0x1c2; main.o:_02021_DS_=0x1c2
000001e8 ffef                RET
_LED:
000001e9 f3d0                BTRSC    0x2f, 0x0
000001ea c610                LGOTO    0x1ef; LED.o:_02029_DS_=0x1ef
000001eb f14f                BTRSC    0x30, 0x5
000001ec c610                LGOTO    0x1ef; LED.o:_02029_DS_=0x1ef
000001ed e779                BSR      PORTB, PB1
000001ee c5f1                LGOTO    0x20e; LED.o:_02032_DS_=0x20e
LED.o:_02029_DS_:
000001ef f4cf                BTRSS    0x30, 0x6
000001f0 c603                LGOTO    0x1fc; LED.o:_02025_DS_=0x1fc
000001f1 f04f                BTRSC    0x30, 0x7
000001f2 c603                LGOTO    0x1fc; LED.o:_02025_DS_=0x1fc
000001f3 defa                MOVIA    0x5
000001f4 fbc7                SUBAR    0x38, ToAcc
000001f5 f7fc                BTRSS    STATUS, C
000001f6 c5f1                LGOTO    0x20e; LED.o:_02032_DS_=0x20e
000001f7 fd47                CLRR     0x38
000001f8 fef9                MOVR     PORTB, ToAcc
000001f9 dbfd                XORIA    0x2
000001fa ff79                MOVAR    PORTB
000001fb c5f1                LGOTO    0x20e; LED.o:_02032_DS_=0x20e
LED.o:_02025_DS_:
000001fc f4cf                BTRSS    0x30, 0x6
000001fd c5fd                LGOTO    0x202; LED.o:_02021_DS_=0x202
000001fe f44f                BTRSS    0x30, 0x7
000001ff c5fd                LGOTO    0x202; LED.o:_02021_DS_=0x202
00000200 e379                BCR      PORTB, PB1
00000201 c5f1                LGOTO    0x20e; LED.o:_02032_DS_=0x20e
LED.o:_02021_DS_:
00000202 f5d0                BTRSS    0x2f, 0x4
00000203 c5f2                LGOTO    0x20d; LED.o:_02018_DS_=0x20d
00000204 e779                BSR      PORTB, PB1
00000205 deeb                MOVIA    0x14
00000206 fbea                SUBAR    0x15, ToAcc
00000207 f7fc                BTRSS    STATUS, C
00000208 c5f1                LGOTO    0x20e; LED.o:_02032_DS_=0x20e
00000209 fd6a                CLRR     0x15
0000020a e379                BCR      PORTB, PB1
0000020b e1d0                BCR      0x2f, 0x4
0000020c c5f1                LGOTO    0x20e; LED.o:_02032_DS_=0x20e
LED.o:_02018_DS_:
0000020d e379                BCR      PORTB, PB1
LED.o:_02032_DS_:
0000020e ffef                RET
_isr:
main.o:__sdcc_interrupt:
0000020f ff6d                MOVAR    0x12
00000210 eafc                SWAPR    STATUS, ToAcc
00000211 fd7c                CLRR     STATUS
00000212 ff6e                MOVAR    0x11
00000213 fef5                MOVR     PCHBUF, ToAcc
00000214 fd75                CLRR     PCHBUF
00000215 ff6f                MOVAR    0x10
00000216 fefb                MOVR     FSR, ToAcc
00000217 ff61                MOVAR    0x1e
00000218 feeb                MOVR     0x14, ToAcc
00000219 ff60                MOVAR    0x1f
0000021a feec                MOVR     0x13, ToAcc
0000021b ff5f                MOVAR    0x20
0000021c f7f0                BTRSS    INTF, T0IF
0000021d c5da                LGOTO    0x225; main.o:_02007_DS_=0x225
0000021e de01                MOVIA    0xfe
0000021f ff70                MOVAR    INTF
00000220 dec7                MOVIA    0x38
00000221 ff7e                MOVAR    TMR0
00000222 fa69                INCR     0x16, ToReg
00000223 d666                LCALL    0x199; _Clock=0x199
00000224 d68f                LCALL    0x170; _M1_Work_Process=0x170
main.o:_02007_DS_:
00000225 fedf                MOVR     0x20, ToAcc
00000226 ff6c                MOVAR    0x13
00000227 fee0                MOVR     0x1f, ToAcc
00000228 ff6b                MOVAR    0x14
00000229 fee1                MOVR     0x1e, ToAcc
0000022a ff7b                MOVAR    FSR
0000022b feef                MOVR     0x10, ToAcc
0000022c ff75                MOVAR    PCHBUF
0000022d fd7c                CLRR     STATUS
0000022e eaee                SWAPR    0x11, ToAcc
0000022f ff7c                MOVAR    STATUS
00000230 ea6d                SWAPR    0x12, ToReg
00000231 eaed                SWAPR    0x12, ToAcc
main.o:END_OF_INTERRUPT:
00000232 ffee                RETIE
_Charge_Process:
00000233 f7d0                BTRSS    0x2f, 0x0
00000234 c5c9                LGOTO    0x236; Charge.o:_02019_DS_=0x236
00000235 d7fe                LCALL    0x1; _Power_Off=0x1
Charge.o:_02019_DS_:
00000236 f679                BTRSS    PORTB, PB3
00000237 c5bb                LGOTO    0x244; Charge.o:_02031_DS_=0x244
00000238 f5cf                BTRSS    0x30, 0x4
00000239 c5c2                LGOTO    0x23d; Charge.o:_02023_DS_=0x23d
0000023a fd48                CLRR     0x37
0000023b e44f                BSR      0x30, 0x7
0000023c c5af                LGOTO    0x250; Charge.o:_02033_DS_=0x250
Charge.o:_02023_DS_:
0000023d defa                MOVIA    0x5
0000023e fbc8                SUBAR    0x37, ToAcc
0000023f f7fc                BTRSS    STATUS, C
00000240 c5af                LGOTO    0x250; Charge.o:_02033_DS_=0x250
00000241 fd48                CLRR     0x37
00000242 e5cf                BSR      0x30, 0x4
00000243 c5af                LGOTO    0x250; Charge.o:_02033_DS_=0x250
Charge.o:_02031_DS_:
00000244 f5cf                BTRSS    0x30, 0x4
00000245 c5b1                LGOTO    0x24e; Charge.o:_02028_DS_=0x24e
00000246 defa                MOVIA    0x5
00000247 fbc8                SUBAR    0x37, ToAcc
00000248 f7fc                BTRSS    STATUS, C
00000249 c5af                LGOTO    0x250; Charge.o:_02033_DS_=0x250
0000024a fd48                CLRR     0x37
0000024b fd47                CLRR     0x38
0000024c e1cf                BCR      0x30, 0x4
0000024d c5af                LGOTO    0x250; Charge.o:_02033_DS_=0x250
Charge.o:_02028_DS_:
0000024e fd48                CLRR     0x37
0000024f e04f                BCR      0x30, 0x7
Charge.o:_02033_DS_:
00000250 ffef                RET
_Charge_Dectect:
00000251 f7f9                BTRSS    PORTB, PB0
00000252 c59d                LGOTO    0x262; Charge.o:_02011_DS_=0x262
00000253 f54f                BTRSS    0x30, 0x5
00000254 c5a6                LGOTO    0x259; Charge.o:_02008_DS_=0x259
00000255 e4cf                BSR      0x30, 0x6
00000256 fd49                CLRR     0x36
00000257 fd4a                CLRR     0x35
00000258 c599                LGOTO    0x266; Charge.o:_02013_DS_=0x266
Charge.o:_02008_DS_:
00000259 fec6                MOVR     0x39, ToAcc
0000025a f2fc                BTRSC    STATUS, Z
0000025b c599                LGOTO    0x266; Charge.o:_02013_DS_=0x266
0000025c fd46                CLRR     0x39
0000025d e54f                BSR      0x30, 0x5
0000025e e04f                BCR      0x30, 0x7
0000025f fd48                CLRR     0x37
00000260 e1cf                BCR      0x30, 0x4
00000261 c599                LGOTO    0x266; Charge.o:_02013_DS_=0x266
Charge.o:_02011_DS_:
00000262 e14f                BCR      0x30, 0x5
00000263 fd46                CLRR     0x39
00000264 e04f                BCR      0x30, 0x7
00000265 e0cf                BCR      0x30, 0x6
Charge.o:_02013_DS_:
00000266 ffef                RET
_Init:
00000267 de77                MOVIA    0x88
00000268 ff77                MOVAR    PCON
00000269 def6                MOVIA    0x9
0000026a fff9                IOST     IOSTB
0000026b defd                MOVIA    0x2
0000026c ff79                MOVAR    PORTB
0000026d de0e                MOVIA    0xf1
0000026e ff73                MOVAR    BPHCON
0000026f defe                MOVIA    0x1
00000270 fff0                IOST     PCON1
00000271 dec7                MOVIA    0x38
00000272 ff7e                MOVAR    TMR0
00000273 fdff                CLRA
00000274 fffc                T0MD
00000275 def6                MOVIA    0x9
00000276 ff76                MOVAR    BWUCON
00000277 e7f1                BSR      INTE, T0IE
00000278 fd70                CLRR     INTF
00000279 fffb                ENI
0000027a ffef                RET
_Motor_PWM_Loop3:
0000027b ff62                MOVAR    0x1d
0000027c feeb                MOVR     0x14, ToAcc
0000027d ff63                MOVAR    0x1c
0000027e fa56                INCR     0x29, ToReg
0000027f f2fc                BTRSC    STATUS, Z
00000280 fa55                INCR     0x2a, ToReg
00000281 fee3                MOVR     0x1c, ToAcc
00000282 edd6                XORAR    0x29, ToAcc
00000283 f6fc                BTRSS    STATUS, Z
00000284 c573                LGOTO    0x28c; Motor.o:_02036_DS_=0x28c
00000285 fee2                MOVR     0x1d, ToAcc
00000286 edd5                XORAR    0x2a, ToAcc
00000287 f6fc                BTRSS    STATUS, Z
00000288 c573                LGOTO    0x28c; Motor.o:_02036_DS_=0x28c
00000289 fd56                CLRR     0x29
0000028a fd55                CLRR     0x2a
0000028b fd4e                CLRR     0x31
Motor.o:_02036_DS_:
0000028c ffef                RET
_Motor_PWM_Loop2:
0000028d ff62                MOVAR    0x1d
0000028e feeb                MOVR     0x14, ToAcc
0000028f ff63                MOVAR    0x1c
00000290 fa56                INCR     0x29, ToReg
00000291 f2fc                BTRSC    STATUS, Z
00000292 fa55                INCR     0x2a, ToReg
00000293 fee3                MOVR     0x1c, ToAcc
00000294 edd6                XORAR    0x29, ToAcc
00000295 f6fc                BTRSS    STATUS, Z
00000296 c561                LGOTO    0x29e; Motor.o:_02029_DS_=0x29e
00000297 fee2                MOVR     0x1d, ToAcc
00000298 edd5                XORAR    0x2a, ToAcc
00000299 f6fc                BTRSS    STATUS, Z
0000029a c561                LGOTO    0x29e; Motor.o:_02029_DS_=0x29e
0000029b fd56                CLRR     0x29
0000029c fd55                CLRR     0x2a
0000029d fa4e                INCR     0x31, ToReg
Motor.o:_02029_DS_:
0000029e ffef                RET
_Motor_PWM_Loop1:
0000029f ff62                MOVAR    0x1d
000002a0 feeb                MOVR     0x14, ToAcc
000002a1 ff63                MOVAR    0x1c
000002a2 fa56                INCR     0x29, ToReg
000002a3 f2fc                BTRSC    STATUS, Z
000002a4 fa55                INCR     0x2a, ToReg
000002a5 fee3                MOVR     0x1c, ToAcc
000002a6 edd6                XORAR    0x29, ToAcc
000002a7 f6fc                BTRSS    STATUS, Z
000002a8 c54f                LGOTO    0x2b0; Motor.o:_02022_DS_=0x2b0
000002a9 fee2                MOVR     0x1d, ToAcc
000002aa edd5                XORAR    0x2a, ToAcc
000002ab f6fc                BTRSS    STATUS, Z
000002ac c54f                LGOTO    0x2b0; Motor.o:_02022_DS_=0x2b0
000002ad fd56                CLRR     0x29
000002ae fd55                CLRR     0x2a
000002af fa4e                INCR     0x31, ToReg
Motor.o:_02022_DS_:
000002b0 ffef                RET
___cinit_load__:
___cinit_run__:
000002b1 ffef                RET
__checksum:
__CHECKSUM_ADDR__:
